target datalayout = "e-m:e-p270:32:32-p271:32:32-p272:64:64-i64:64-i128:128-f80:128-n8:16:32:64-S128"
target triple = "x86_64-pc-linux-gnu"

%struct.SDL_AudioQueue = type { ptr, ptr, ptr, i64, i64, %struct.SDL_MemoryPool, %struct.SDL_MemoryPool }
%struct.SDL_MemoryPool = type { ptr, i64, i64, i64 }
%struct.SDL_AudioTrack = type { %struct.SDL_AudioSpec, ptr, i8, ptr, ptr, ptr, ptr, i64, i64, i64, [8 x i32] }
%struct.SDL_AudioSpec = type { i32, i32, i32 }

; Function Attrs: nounwind uwtable
define internal ptr @AllocNewMemoryPoolBlock(ptr noundef %0) #0 {
  %2 = alloca ptr, align 8
  store ptr %0, ptr %2, align 8
  %3 = load ptr, ptr %2, align 8
  %4 = getelementptr inbounds nuw %struct.SDL_MemoryPool, ptr %3, i32 0, i32 1
  %5 = load i64, ptr %4, align 8
  %6 = call noalias ptr @SDL_malloc_REAL(i64 noundef %5)
  ret ptr %6
}

; Function Attrs: nounwind uwtable
define internal ptr @AllocMemoryPoolBlock(ptr noundef %0) #0 {
  %2 = alloca ptr, align 8
  %3 = alloca ptr, align 8
  %4 = alloca ptr, align 8
  store ptr %0, ptr %3, align 8
  %5 = load ptr, ptr %3, align 8
  %6 = getelementptr inbounds nuw %struct.SDL_MemoryPool, ptr %5, i32 0, i32 2
  %7 = load i64, ptr %6, align 8
  %8 = icmp eq i64 %7, 0
  br i1 %8, label %9, label %12

9:                                                ; preds = %1
  %10 = load ptr, ptr %3, align 8
  %11 = call ptr @AllocNewMemoryPoolBlock(ptr noundef %10)
  store ptr %11, ptr %2, align 8
  br label %25

12:                                               ; preds = %1
  call void @llvm.lifetime.start.p0(i64 8, ptr %4) #6
  %13 = load ptr, ptr %3, align 8
  %14 = getelementptr inbounds nuw %struct.SDL_MemoryPool, ptr %13, i32 0, i32 0
  %15 = load ptr, ptr %14, align 8
  store ptr %15, ptr %4, align 8
  %16 = load ptr, ptr %4, align 8
  %17 = load ptr, ptr %16, align 8
  %18 = load ptr, ptr %3, align 8
  %19 = getelementptr inbounds nuw %struct.SDL_MemoryPool, ptr %18, i32 0, i32 0
  store ptr %17, ptr %19, align 8
  %20 = load ptr, ptr %3, align 8
  %21 = getelementptr inbounds nuw %struct.SDL_MemoryPool, ptr %20, i32 0, i32 2
  %22 = load i64, ptr %21, align 8
  %23 = add i64 %22, -1
  store i64 %23, ptr %21, align 8
  %24 = load ptr, ptr %4, align 8
  store ptr %24, ptr %2, align 8
  call void @llvm.lifetime.end.p0(i64 8, ptr %4) #6
  br label %25

25:                                               ; preds = %12, %9
  %26 = load ptr, ptr %2, align 8
  ret ptr %26
}

; Function Attrs: nounwind uwtable
define hidden ptr @SDL_CreateAudioTrack(ptr noundef %0, ptr noundef %1, ptr noundef %2, ptr noundef %3, i64 noundef %4, i64 noundef %5, ptr noundef %6, ptr noundef %7) #0 {
  %9 = alloca ptr, align 8
  %10 = alloca ptr, align 8
  %11 = alloca ptr, align 8
  %12 = alloca ptr, align 8
  %13 = alloca ptr, align 8
  %14 = alloca i64, align 8
  %15 = alloca i64, align 8
  %16 = alloca ptr, align 8
  %17 = alloca ptr, align 8
  %18 = alloca ptr, align 8
  %19 = alloca i32, align 4
  store ptr %0, ptr %10, align 8
  store ptr %1, ptr %11, align 8
  store ptr %2, ptr %12, align 8
  store ptr %3, ptr %13, align 8
  store i64 %4, ptr %14, align 8
  store i64 %5, ptr %15, align 8
  store ptr %6, ptr %16, align 8
  store ptr %7, ptr %17, align 8
  call void @llvm.lifetime.start.p0(i64 8, ptr %18) #6
  %20 = load ptr, ptr %10, align 8
  %21 = getelementptr inbounds nuw %struct.SDL_AudioQueue, ptr %20, i32 0, i32 5
  %22 = call ptr @AllocMemoryPoolBlock(ptr noundef %21)
  store ptr %22, ptr %18, align 8
  %23 = load ptr, ptr %18, align 8
  %24 = icmp ne ptr %23, null
  br i1 %24, label %26, label %25

25:                                               ; preds = %8
  store ptr null, ptr %9, align 8
  store i32 1, ptr %19, align 4
  br label %70

26:                                               ; preds = %8
  %27 = load ptr, ptr %18, align 8
  call void @llvm.memset.p0.i64(ptr align 8 %27, i8 0, i64 120, i1 false)
  %28 = load ptr, ptr %12, align 8
  %29 = icmp ne ptr %28, null
  br i1 %29, label %30, label %48

30:                                               ; preds = %26
  br label %31

31:                                               ; preds = %30
  br label %32

32:                                               ; preds = %31
  br label %33

33:                                               ; preds = %32
  %34 = load ptr, ptr %18, align 8
  %35 = getelementptr inbounds nuw %struct.SDL_AudioTrack, ptr %34, i32 0, i32 10
  %36 = getelementptr inbounds [8 x i32], ptr %35, i64 0, i64 0
  %37 = load ptr, ptr %12, align 8
  %38 = load ptr, ptr %11, align 8
  %39 = getelementptr inbounds nuw %struct.SDL_AudioSpec, ptr %38, i32 0, i32 1
  %40 = load i32, ptr %39, align 4
  %41 = sext i32 %40 to i64
  %42 = mul i64 4, %41
  call void @llvm.memcpy.p0.p0.i64(ptr align 8 %36, ptr align 4 %37, i64 %42, i1 false)
  %43 = load ptr, ptr %18, align 8
  %44 = getelementptr inbounds nuw %struct.SDL_AudioTrack, ptr %43, i32 0, i32 10
  %45 = getelementptr inbounds [8 x i32], ptr %44, i64 0, i64 0
  %46 = load ptr, ptr %18, align 8
  %47 = getelementptr inbounds nuw %struct.SDL_AudioTrack, ptr %46, i32 0, i32 1
  store ptr %45, ptr %47, align 8
  br label %48

48:                                               ; preds = %33, %26
  %49 = load ptr, ptr %18, align 8
  %50 = getelementptr inbounds nuw %struct.SDL_AudioTrack, ptr %49, i32 0, i32 0
  %51 = load ptr, ptr %11, align 8
  call void @llvm.memcpy.p0.p0.i64(ptr align 8 %50, ptr align 4 %51, i64 12, i1 false)
  %52 = load ptr, ptr %17, align 8
  %53 = load ptr, ptr %18, align 8
  %54 = getelementptr inbounds nuw %struct.SDL_AudioTrack, ptr %53, i32 0, i32 4
  store ptr %52, ptr %54, align 8
  %55 = load ptr, ptr %16, align 8
  %56 = load ptr, ptr %18, align 8
  %57 = getelementptr inbounds nuw %struct.SDL_AudioTrack, ptr %56, i32 0, i32 5
  store ptr %55, ptr %57, align 8
  %58 = load ptr, ptr %13, align 8
  %59 = load ptr, ptr %18, align 8
  %60 = getelementptr inbounds nuw %struct.SDL_AudioTrack, ptr %59, i32 0, i32 6
  store ptr %58, ptr %60, align 8
  %61 = load ptr, ptr %18, align 8
  %62 = getelementptr inbounds nuw %struct.SDL_AudioTrack, ptr %61, i32 0, i32 7
  store i64 0, ptr %62, align 8
  %63 = load i64, ptr %14, align 8
  %64 = load ptr, ptr %18, align 8
  %65 = getelementptr inbounds nuw %struct.SDL_AudioTrack, ptr %64, i32 0, i32 8
  store i64 %63, ptr %65, align 8
  %66 = load i64, ptr %15, align 8
  %67 = load ptr, ptr %18, align 8
  %68 = getelementptr inbounds nuw %struct.SDL_AudioTrack, ptr %67, i32 0, i32 9
  store i64 %66, ptr %68, align 8
  %69 = load ptr, ptr %18, align 8
  store ptr %69, ptr %9, align 8
  store i32 1, ptr %19, align 4
  br label %70

70:                                               ; preds = %48, %25
  call void @llvm.lifetime.end.p0(i64 8, ptr %18) #6
  %71 = load ptr, ptr %9, align 8
  ret ptr %71
}