; Function Attrs: nounwind uwtable
define hidden noundef ptr @SDL_CreateAudioTrack(ptr noundef captures(none) %0, ptr noundef readonly captures(none) %1, ptr noundef readonly captures(address_is_null) %2, ptr noundef %3, i64 noundef %4, i64 noundef %5, ptr noundef %6, ptr noundef %7) local_unnamed_addr #0 {
  %9 = getelementptr inbounds nuw i8, ptr %0, i64 56
  %10 = load i64, ptr %9, align 8
  %11 = icmp eq i64 %10, 0
  br i1 %11, label %AllocMemoryPoolBlock.exit, label %AllocMemoryPoolBlock.exit.thread

AllocMemoryPoolBlock.exit.thread:                 ; preds = %8
  %12 = getelementptr inbounds nuw i8, ptr %0, i64 40
  %13 = load ptr, ptr %12, align 8
  %14 = load ptr, ptr %13, align 8
  store ptr %14, ptr %12, align 8
  %15 = add i64 %10, -1
  store i64 %15, ptr %9, align 8
  br label %18

AllocMemoryPoolBlock.exit:                        ; preds = %8
  %16 = getelementptr i8, ptr %0, i64 48
  %.val.i = load i64, ptr %16, align 8
  %17 = tail call noalias ptr @SDL_malloc_REAL(i64 noundef %.val.i) #10
  %.not = icmp eq ptr %17, null
  br i1 %.not, label %33, label %18

18:                                               ; preds = %AllocMemoryPoolBlock.exit.thread, %AllocMemoryPoolBlock.exit
  %.0.i28 = phi ptr [ %13, %AllocMemoryPoolBlock.exit.thread ], [ %17, %AllocMemoryPoolBlock.exit ]
  tail call void @llvm.memset.p0.i64(ptr noundef nonnull align 8 dereferenceable(120) %.0.i28, i8 0, i64 120, i1 false)
  %.not25 = icmp eq ptr %2, null
  br i1 %.not25, label %26, label %19

19:                                               ; preds = %18
  %20 = getelementptr inbounds nuw i8, ptr %.0.i28, i64 88
  %21 = getelementptr inbounds nuw i8, ptr %1, i64 4
  %22 = load i32, ptr %21, align 4
  %23 = sext i32 %22 to i64
  %24 = shl nsw i64 %23, 2
  tail call void @llvm.memcpy.p0.p0.i64(ptr nonnull align 8 %20, ptr nonnull align 4 %2, i64 %24, i1 false)
  %25 = getelementptr inbounds nuw i8, ptr %.0.i28, i64 16
  store ptr %20, ptr %25, align 8
  br label %26

26:                                               ; preds = %19, %18
  tail call void @llvm.memcpy.p0.p0.i64(ptr noundef nonnull align 8 dereferenceable(12) %.0.i28, ptr noundef nonnull align 4 dereferenceable(12) %1, i64 12, i1 false)
  %27 = getelementptr inbounds nuw i8, ptr %.0.i28, i64 40
  store ptr %7, ptr %27, align 8
  %28 = getelementptr inbounds nuw i8, ptr %.0.i28, i64 48
  store ptr %6, ptr %28, align 8
  %29 = getelementptr inbounds nuw i8, ptr %.0.i28, i64 56
  store ptr %3, ptr %29, align 8
  %30 = getelementptr inbounds nuw i8, ptr %.0.i28, i64 64
  store i64 0, ptr %30, align 8
  %31 = getelementptr inbounds nuw i8, ptr %.0.i28, i64 72
  store i64 %4, ptr %31, align 8
  %32 = getelementptr inbounds nuw i8, ptr %.0.i28, i64 80
  store i64 %5, ptr %32, align 8
  br label %33

33:                                               ; preds = %AllocMemoryPoolBlock.exit, %26
  %.0 = phi ptr [ %.0.i28, %26 ], [ null, %AllocMemoryPoolBlock.exit ]
  ret ptr %.0
}